(dp0
S'ECHANTILLON_SILENCE'
p1
F0.8
sS'RECORD_DURATION'
p2
F0.32
sS'SENSIBILITE_SNOWBOY'
p3
F0.34
sS'USER'
p4
S'Optimus'
p5
sS'WIT_AI_KEY'
p6
S'MWUCLNWIHPFPHEAKAN5OTJFMB2MLMRWX'
p7
sS'NIVEAU_CONFIDENCE'
p8
F0.6
s.